target datalayout = "e-m:e-p270:32:32-p271:32:32-p272:64:64-i64:64-i128:128-f80:128-n8:16:32:64-S128"
target triple = "x86_64-pc-linux-gnu"

%"class.zmq::shared_message_memory_allocator" = type { ptr, i64, i64, ptr, i64 }
%"class.zmq::atomic_counter_t" = type { %"struct.std::atomic", [4 x i8] }
%"struct.std::atomic" = type { %"struct.std::__atomic_base" }
%"struct.std::__atomic_base" = type { i32 }

; Function Attrs: alwaysinline mustprogress nounwind uwtable
define linkonce_odr noundef i32 @_ZNSt13__atomic_baseIjE9fetch_subEjSt12memory_order(ptr noundef nonnull align 4 dereferenceable(4) %0, i32 noundef %1, i32 noundef %2) #8 comdat align 2 {
  %4 = alloca ptr, align 8
  %5 = alloca i32, align 4
  %6 = alloca i32, align 4
  %7 = alloca i32, align 4
  %8 = alloca i32, align 4
  store ptr %0, ptr %4, align 8, !tbaa !26
  store i32 %1, ptr %5, align 4, !tbaa !22
  store i32 %2, ptr %6, align 4, !tbaa !28
  %9 = load ptr, ptr %4, align 8
  %10 = getelementptr inbounds nuw %"struct.std::__atomic_base", ptr %9, i32 0, i32 0
  %11 = load i32, ptr %6, align 4, !tbaa !28
  %12 = load i32, ptr %5, align 4, !tbaa !22
  store i32 %12, ptr %7, align 4, !tbaa !22
  switch i32 %11, label %13 [
    i32 1, label %16
    i32 2, label %16
    i32 3, label %19
    i32 4, label %22
    i32 5, label %25
  ]

13:                                               ; preds = %3
  %14 = load i32, ptr %7, align 4
  %15 = atomicrmw sub ptr %10, i32 %14 monotonic, align 4
  store i32 %15, ptr %8, align 4
  br label %28

16:                                               ; preds = %3, %3
  %17 = load i32, ptr %7, align 4
  %18 = atomicrmw sub ptr %10, i32 %17 acquire, align 4
  store i32 %18, ptr %8, align 4
  br label %28

19:                                               ; preds = %3
  %20 = load i32, ptr %7, align 4
  %21 = atomicrmw sub ptr %10, i32 %20 release, align 4
  store i32 %21, ptr %8, align 4
  br label %28

22:                                               ; preds = %3
  %23 = load i32, ptr %7, align 4
  %24 = atomicrmw sub ptr %10, i32 %23 acq_rel, align 4
  store i32 %24, ptr %8, align 4
  br label %28

25:                                               ; preds = %3
  %26 = load i32, ptr %7, align 4
  %27 = atomicrmw sub ptr %10, i32 %26 seq_cst, align 4
  store i32 %27, ptr %8, align 4
  br label %28

28:                                               ; preds = %25, %22, %19, %16, %13
  %29 = load i32, ptr %8, align 4, !tbaa !22
  ret i32 %29
}

; Function Attrs: mustprogress nounwind uwtable
define void @_ZN3zmq31shared_message_memory_allocator5clearEv(ptr noundef nonnull align 8 dereferenceable(40) %0) #0 align 2 {
  %2 = alloca ptr, align 8
  store ptr %0, ptr %2, align 8, !tbaa !3
  %3 = load ptr, ptr %2, align 8
  %4 = getelementptr inbounds nuw %"class.zmq::shared_message_memory_allocator", ptr %3, i32 0, i32 0
  store ptr null, ptr %4, align 8, !tbaa !10
  %5 = getelementptr inbounds nuw %"class.zmq::shared_message_memory_allocator", ptr %3, i32 0, i32 1
  store i64 0, ptr %5, align 8, !tbaa !14
  %6 = getelementptr inbounds nuw %"class.zmq::shared_message_memory_allocator", ptr %3, i32 0, i32 3
  store ptr null, ptr %6, align 8, !tbaa !16
  ret void
}

; Function Attrs: mustprogress nounwind uwtable
define linkonce_odr noundef zeroext i1 @_ZN3zmq16atomic_counter_t3subEj(ptr noundef nonnull align 8 dereferenceable(4) %0, i32 noundef %1) #0 comdat align 2 {
  %3 = alloca ptr, align 8
  %4 = alloca i32, align 4
  %5 = alloca i32, align 4
  store ptr %0, ptr %3, align 8, !tbaa !18
  store i32 %1, ptr %4, align 4, !tbaa !22
  %6 = load ptr, ptr %3, align 8
  call void @llvm.lifetime.start.p0(i64 4, ptr %5) #10
  %7 = getelementptr inbounds nuw %"class.zmq::atomic_counter_t", ptr %6, i32 0, i32 0
  %8 = load i32, ptr %4, align 4, !tbaa !22
  %9 = call noundef i32 @_ZNSt13__atomic_baseIjE9fetch_subEjSt12memory_order(ptr noundef nonnull align 4 dereferenceable(4) %7, i32 noundef %8, i32 noundef 4) #10
  store i32 %9, ptr %5, align 4, !tbaa !22
  %10 = load i32, ptr %5, align 4, !tbaa !22
  %11 = load i32, ptr %4, align 4, !tbaa !22
  %12 = sub i32 %10, %11
  %13 = icmp ne i32 %12, 0
  call void @llvm.lifetime.end.p0(i64 4, ptr %5) #10
  ret i1 %13
}

; Function Attrs: mustprogress uwtable
define void @_ZN3zmq31shared_message_memory_allocator10deallocateEv(ptr noundef nonnull align 8 dereferenceable(40) %0) #1 align 2 {
  %2 = alloca ptr, align 8
  %3 = alloca ptr, align 8
  store ptr %0, ptr %2, align 8, !tbaa !3
  %4 = load ptr, ptr %2, align 8
  call void @llvm.lifetime.start.p0(i64 8, ptr %3) #10
  %5 = getelementptr inbounds nuw %"class.zmq::shared_message_memory_allocator", ptr %4, i32 0, i32 0
  %6 = load ptr, ptr %5, align 8, !tbaa !10
  store ptr %6, ptr %3, align 8, !tbaa !18
  %7 = getelementptr inbounds nuw %"class.zmq::shared_message_memory_allocator", ptr %4, i32 0, i32 0
  %8 = load ptr, ptr %7, align 8, !tbaa !10
  %9 = icmp ne ptr %8, null
  br i1 %9, label %10, label %16

10:                                               ; preds = %1
  %11 = load ptr, ptr %3, align 8, !tbaa !18
  %12 = call noundef zeroext i1 @_ZN3zmq16atomic_counter_t3subEj(ptr noundef nonnull align 8 dereferenceable(4) %11, i32 noundef 1) #10
  br i1 %12, label %16, label %13

13:                                               ; preds = %10
  %14 = getelementptr inbounds nuw %"class.zmq::shared_message_memory_allocator", ptr %4, i32 0, i32 0
  %15 = load ptr, ptr %14, align 8, !tbaa !10
  call void @free(ptr noundef %15) #10
  br label %16

16:                                               ; preds = %13, %10, %1
  call void @_ZN3zmq31shared_message_memory_allocator5clearEv(ptr noundef nonnull align 8 dereferenceable(40) %4)
  call void @llvm.lifetime.end.p0(i64 8, ptr %3) #10
  ret void
}