; Function Attrs: mustprogress nounwind willreturn uwtable
define void @_ZN3zmq31shared_message_memory_allocator10deallocateEv(ptr noundef nonnull align 8 captures(none) dereferenceable(40) initializes((8, 16), (24, 32)) %0) local_unnamed_addr #1 align 2 {
  %2 = load ptr, ptr %0, align 8, !tbaa !13
  %.not = icmp eq ptr %2, null
  br i1 %.not, label %7, label %3

3:                                                ; preds = %1
  %4 = atomicrmw sub ptr %2, i32 1 acq_rel, align 4
  %.not2 = icmp eq i32 %4, 1
  br i1 %.not2, label %5, label %7

5:                                                ; preds = %3
  %6 = load ptr, ptr %0, align 8, !tbaa !13
  tail call void @free(ptr noundef %6) #11
  br label %7

7:                                                ; preds = %5, %3, %1
  %8 = getelementptr inbounds nuw i8, ptr %0, i64 24
  store ptr null, ptr %8, align 8, !tbaa !11
  tail call void @llvm.memset.p0.i64(ptr noundef nonnull align 8 dereferenceable(40) %0, i8 0, i64 16, i1 false)
  ret void
}